target datalayout = "e-m:e-p270:32:32-p271:32:32-p272:64:64-i64:64-i128:128-f80:128-n8:16:32:64-S128"
target triple = "x86_64-pc-linux-gnu"

%struct.AVFormatContext = type { ptr, ptr, ptr, ptr, ptr, i32, i32, ptr, i32, ptr, i32, ptr, ptr, i64, i64, i64, i32, i32, i32, i64, i64, ptr, i32, i32, ptr, i32, i32, i32, i32, ptr, i64, i32, i32, %struct.AVIOInterruptCB, i32, i32, i32, i32, i64, i32, i32, i32, i32, i32, i32, i32, i32, i32, i32, i32, i32, i64, i32, i32, i32, i32, i32, ptr, ptr, ptr, ptr, i32, ptr, ptr, ptr, ptr, i32, ptr, ptr, i64, ptr, ptr, ptr, i64 }
%struct.AVIOInterruptCB = type { ptr, ptr }
%struct.AVStream = type { ptr, i32, i32, ptr, ptr, %struct.AVRational, i64, i64, i64, i32, i32, %struct.AVRational, ptr, %struct.AVRational, %struct.AVPacket, i32, %struct.AVRational, i32 }
%struct.AVPacket = type { ptr, i64, i64, ptr, i32, i32, i32, ptr, i32, i64, i64, ptr, ptr, %struct.AVRational }
%struct.AVRational = type { i32, i32 }
%struct.AVCodecParameters = type { i32, i32, i32, ptr, i32, ptr, i32, i32, i64, i32, i32, i32, i32, i32, i32, %struct.AVRational, %struct.AVRational, i32, i32, i32, i32, i32, i32, i32, %struct.AVChannelLayout, i32, i32, i32, i32, i32, i32 }
%struct.AVChannelLayout = type { i32, i32, %union.anon, ptr }
%union.anon = type { i64 }
%struct.AVDictionaryEntry = type { ptr, ptr }

@.str.2 = private unnamed_addr constant [84 x i8] c"Only maximum 2 channels are supported in the audio stream, %d channels were found.\0A\00", align 1
@.str.3 = private unnamed_addr constant [53 x i8] c"Invalid sample rate (%d) AEA only supports 44.1kHz.\0A\00", align 1
@.str.4 = private unnamed_addr constant [6 x i8] c"title\00", align 1
@.str.5 = private unnamed_addr constant [41 x i8] c"Title too long, truncated to 256 bytes.\0A\00", align 1

; Function Attrs: nounwind uwtable
define internal i32 @aea_write_header(ptr noundef %0) #0 {
  %2 = alloca i32, align 4
  %3 = alloca ptr, align 8
  %4 = alloca ptr, align 8
  %5 = alloca i64, align 8
  %6 = alloca ptr, align 8
  %7 = alloca i32, align 4
  %8 = alloca ptr, align 8
  store ptr %0, ptr %3, align 8, !tbaa !4
  call void @llvm.lifetime.start.p0(i64 8, ptr %4) #4
  call void @llvm.lifetime.start.p0(i64 8, ptr %5) #4
  store i64 0, ptr %5, align 8, !tbaa !9
  call void @llvm.lifetime.start.p0(i64 8, ptr %6) #4
  %9 = load ptr, ptr %3, align 8, !tbaa !4
  %10 = getelementptr inbounds nuw %struct.AVFormatContext, ptr %9, i32 0, i32 7
  %11 = load ptr, ptr %10, align 8, !tbaa !11
  %12 = getelementptr inbounds ptr, ptr %11, i64 0
  %13 = load ptr, ptr %12, align 8, !tbaa !27
  store ptr %13, ptr %6, align 8, !tbaa !27
  %14 = load ptr, ptr %6, align 8, !tbaa !27
  %15 = getelementptr inbounds nuw %struct.AVStream, ptr %14, i32 0, i32 3
  %16 = load ptr, ptr %15, align 8, !tbaa !29
  %17 = getelementptr inbounds nuw %struct.AVCodecParameters, ptr %16, i32 0, i32 24
  %18 = getelementptr inbounds nuw %struct.AVChannelLayout, ptr %17, i32 0, i32 1
  %19 = load i32, ptr %18, align 4, !tbaa !36
  %20 = icmp ne i32 %19, 1
  br i1 %20, label %21, label %37

21:                                               ; preds = %1
  %22 = load ptr, ptr %6, align 8, !tbaa !27
  %23 = getelementptr inbounds nuw %struct.AVStream, ptr %22, i32 0, i32 3
  %24 = load ptr, ptr %23, align 8, !tbaa !29
  %25 = getelementptr inbounds nuw %struct.AVCodecParameters, ptr %24, i32 0, i32 24
  %26 = getelementptr inbounds nuw %struct.AVChannelLayout, ptr %25, i32 0, i32 1
  %27 = load i32, ptr %26, align 4, !tbaa !36
  %28 = icmp ne i32 %27, 2
  br i1 %28, label %29, label %37

29:                                               ; preds = %21
  %30 = load ptr, ptr %3, align 8, !tbaa !4
  %31 = load ptr, ptr %6, align 8, !tbaa !27
  %32 = getelementptr inbounds nuw %struct.AVStream, ptr %31, i32 0, i32 3
  %33 = load ptr, ptr %32, align 8, !tbaa !29
  %34 = getelementptr inbounds nuw %struct.AVCodecParameters, ptr %33, i32 0, i32 24
  %35 = getelementptr inbounds nuw %struct.AVChannelLayout, ptr %34, i32 0, i32 1
  %36 = load i32, ptr %35, align 4, !tbaa !36
  call void (ptr, i32, ptr, ...) @av_log(ptr noundef %30, i32 noundef 16, ptr noundef @.str.2, i32 noundef %36)
  store i32 -22, ptr %2, align 4
  store i32 1, ptr %7, align 4
  br label %102

37:                                               ; preds = %21, %1
  %38 = load ptr, ptr %6, align 8, !tbaa !27
  %39 = getelementptr inbounds nuw %struct.AVStream, ptr %38, i32 0, i32 3
  %40 = load ptr, ptr %39, align 8, !tbaa !29
  %41 = getelementptr inbounds nuw %struct.AVCodecParameters, ptr %40, i32 0, i32 25
  %42 = load i32, ptr %41, align 8, !tbaa !39
  %43 = icmp ne i32 %42, 44100
  br i1 %43, label %44, label %51

44:                                               ; preds = %37
  %45 = load ptr, ptr %3, align 8, !tbaa !4
  %46 = load ptr, ptr %6, align 8, !tbaa !27
  %47 = getelementptr inbounds nuw %struct.AVStream, ptr %46, i32 0, i32 3
  %48 = load ptr, ptr %47, align 8, !tbaa !29
  %49 = getelementptr inbounds nuw %struct.AVCodecParameters, ptr %48, i32 0, i32 25
  %50 = load i32, ptr %49, align 8, !tbaa !39
  call void (ptr, i32, ptr, ...) @av_log(ptr noundef %45, i32 noundef 16, ptr noundef @.str.3, i32 noundef %50)
  store i32 -22, ptr %2, align 4
  store i32 1, ptr %7, align 4
  br label %102

51:                                               ; preds = %37
  %52 = load ptr, ptr %3, align 8, !tbaa !4
  %53 = getelementptr inbounds nuw %struct.AVFormatContext, ptr %52, i32 0, i32 4
  %54 = load ptr, ptr %53, align 8, !tbaa !40
  call void @avio_wl32(ptr noundef %54, i32 noundef 2048)
  %55 = load ptr, ptr %6, align 8, !tbaa !27
  %56 = getelementptr inbounds nuw %struct.AVStream, ptr %55, i32 0, i32 12
  %57 = load ptr, ptr %56, align 8, !tbaa !41
  %58 = call ptr @av_dict_get(ptr noundef %57, ptr noundef @.str.4, ptr noundef null, i32 noundef 0)
  store ptr %58, ptr %4, align 8, !tbaa !42
  %59 = load ptr, ptr %4, align 8, !tbaa !42
  %60 = icmp ne ptr %59, null
  br i1 %60, label %61, label %78

61:                                               ; preds = %51
  call void @llvm.lifetime.start.p0(i64 8, ptr %8) #4
  %62 = load ptr, ptr %4, align 8, !tbaa !42
  %63 = getelementptr inbounds nuw %struct.AVDictionaryEntry, ptr %62, i32 0, i32 1
  %64 = load ptr, ptr %63, align 8, !tbaa !44
  store ptr %64, ptr %8, align 8, !tbaa !46
  %65 = load ptr, ptr %8, align 8, !tbaa !46
  %66 = call i64 @strlen(ptr noundef %65) #5
  store i64 %66, ptr %5, align 8, !tbaa !9
  %67 = load i64, ptr %5, align 8, !tbaa !9
  %68 = icmp ugt i64 %67, 256
  br i1 %68, label %69, label %71

69:                                               ; preds = %61
  %70 = load ptr, ptr %3, align 8, !tbaa !4
  call void (ptr, i32, ptr, ...) @av_log(ptr noundef %70, i32 noundef 24, ptr noundef @.str.5)
  store i64 256, ptr %5, align 8, !tbaa !9
  br label %71

71:                                               ; preds = %69, %61
  %72 = load ptr, ptr %3, align 8, !tbaa !4
  %73 = getelementptr inbounds nuw %struct.AVFormatContext, ptr %72, i32 0, i32 4
  %74 = load ptr, ptr %73, align 8, !tbaa !40
  %75 = load ptr, ptr %8, align 8, !tbaa !46
  %76 = load i64, ptr %5, align 8, !tbaa !9
  %77 = trunc i64 %76 to i32
  call void @avio_write(ptr noundef %74, ptr noundef %75, i32 noundef %77)
  call void @llvm.lifetime.end.p0(i64 8, ptr %8) #4
  br label %78

78:                                               ; preds = %71, %51
  %79 = load ptr, ptr %3, align 8, !tbaa !4
  %80 = getelementptr inbounds nuw %struct.AVFormatContext, ptr %79, i32 0, i32 4
  %81 = load ptr, ptr %80, align 8, !tbaa !40
  %82 = load i64, ptr %5, align 8, !tbaa !9
  %83 = sub i64 256, %82
  call void @ffio_fill(ptr noundef %81, i32 noundef 0, i64 noundef %83)
  %84 = load ptr, ptr %3, align 8, !tbaa !4
  %85 = getelementptr inbounds nuw %struct.AVFormatContext, ptr %84, i32 0, i32 4
  %86 = load ptr, ptr %85, align 8, !tbaa !40
  call void @avio_wl32(ptr noundef %86, i32 noundef 0)
  %87 = load ptr, ptr %3, align 8, !tbaa !4
  %88 = getelementptr inbounds nuw %struct.AVFormatContext, ptr %87, i32 0, i32 4
  %89 = load ptr, ptr %88, align 8, !tbaa !40
  %90 = load ptr, ptr %6, align 8, !tbaa !27
  %91 = getelementptr inbounds nuw %struct.AVStream, ptr %90, i32 0, i32 3
  %92 = load ptr, ptr %91, align 8, !tbaa !29
  %93 = getelementptr inbounds nuw %struct.AVCodecParameters, ptr %92, i32 0, i32 24
  %94 = getelementptr inbounds nuw %struct.AVChannelLayout, ptr %93, i32 0, i32 1
  %95 = load i32, ptr %94, align 4, !tbaa !36
  call void @avio_w8(ptr noundef %89, i32 noundef %95)
  %96 = load ptr, ptr %3, align 8, !tbaa !4
  %97 = getelementptr inbounds nuw %struct.AVFormatContext, ptr %96, i32 0, i32 4
  %98 = load ptr, ptr %97, align 8, !tbaa !40
  call void @avio_w8(ptr noundef %98, i32 noundef 0)
  %99 = load ptr, ptr %3, align 8, !tbaa !4
  %100 = getelementptr inbounds nuw %struct.AVFormatContext, ptr %99, i32 0, i32 4
  %101 = load ptr, ptr %100, align 8, !tbaa !40
  call void @ffio_fill(ptr noundef %101, i32 noundef 0, i64 noundef 1782)
  store i32 0, ptr %2, align 4
  store i32 1, ptr %7, align 4
  br label %102

102:                                              ; preds = %78, %44, %29
  call void @llvm.lifetime.end.p0(i64 8, ptr %6) #4
  call void @llvm.lifetime.end.p0(i64 8, ptr %5) #4
  call void @llvm.lifetime.end.p0(i64 8, ptr %4) #4
  %103 = load i32, ptr %2, align 4
  ret i32 %103
}