; Function Attrs: nounwind uwtable
define internal range(i32 -22, 1) i32 @aea_write_header(ptr noundef %0) #0 {
  %2 = getelementptr inbounds nuw i8, ptr %0, i64 48
  %3 = load ptr, ptr %2, align 8, !tbaa !4
  %4 = load ptr, ptr %3, align 8, !tbaa !24
  %5 = getelementptr inbounds nuw i8, ptr %4, i64 16
  %6 = load ptr, ptr %5, align 8, !tbaa !26
  %7 = getelementptr inbounds nuw i8, ptr %6, i64 132
  %8 = load i32, ptr %7, align 4, !tbaa !33
  %.off = add i32 %8, -1
  %switch = icmp ult i32 %.off, 2
  br i1 %switch, label %10, label %9

9:                                                ; preds = %1
  tail call void (ptr, i32, ptr, ...) @av_log(ptr noundef nonnull %0, i32 noundef 16, ptr noundef nonnull @.str.2, i32 noundef %8) #3
  br label %39

10:                                               ; preds = %1
  %11 = getelementptr inbounds nuw i8, ptr %6, i64 152
  %12 = load i32, ptr %11, align 8, !tbaa !36
  %.not31 = icmp eq i32 %12, 44100
  br i1 %.not31, label %14, label %13

13:                                               ; preds = %10
  tail call void (ptr, i32, ptr, ...) @av_log(ptr noundef nonnull %0, i32 noundef 16, ptr noundef nonnull @.str.3, i32 noundef %12) #3
  br label %39

14:                                               ; preds = %10
  %15 = getelementptr inbounds nuw i8, ptr %0, i64 32
  %16 = load ptr, ptr %15, align 8, !tbaa !37
  tail call void @avio_wl32(ptr noundef %16, i32 noundef 2048) #3
  %17 = getelementptr inbounds nuw i8, ptr %4, i64 80
  %18 = load ptr, ptr %17, align 8, !tbaa !38
  %19 = tail call ptr @av_dict_get(ptr noundef %18, ptr noundef nonnull @.str.4, ptr noundef null, i32 noundef 0) #3
  %.not32 = icmp eq ptr %19, null
  br i1 %.not32, label %30, label %20

20:                                               ; preds = %14
  %21 = getelementptr inbounds nuw i8, ptr %19, i64 8
  %22 = load ptr, ptr %21, align 8, !tbaa !39
  %23 = tail call i64 @strlen(ptr noundef nonnull dereferenceable(1) %22) #4
  %24 = icmp ugt i64 %23, 256
  br i1 %24, label %25, label %26

25:                                               ; preds = %20
  tail call void (ptr, i32, ptr, ...) @av_log(ptr noundef nonnull %0, i32 noundef 24, ptr noundef nonnull @.str.5) #3
  br label %26

26:                                               ; preds = %25, %20
  %.1 = phi i64 [ 256, %25 ], [ %23, %20 ]
  %27 = load ptr, ptr %15, align 8, !tbaa !37
  %28 = trunc nuw nsw i64 %.1 to i32
  tail call void @avio_write(ptr noundef %27, ptr noundef nonnull %22, i32 noundef %28) #3
  %29 = sub nuw nsw i64 256, %.1
  br label %30

30:                                               ; preds = %26, %14
  %.025 = phi i64 [ %29, %26 ], [ 256, %14 ]
  %31 = load ptr, ptr %15, align 8, !tbaa !37
  tail call void @ffio_fill(ptr noundef %31, i32 noundef 0, i64 noundef %.025) #3
  %32 = load ptr, ptr %15, align 8, !tbaa !37
  tail call void @avio_wl32(ptr noundef %32, i32 noundef 0) #3
  %33 = load ptr, ptr %15, align 8, !tbaa !37
  %34 = load ptr, ptr %5, align 8, !tbaa !26
  %35 = getelementptr inbounds nuw i8, ptr %34, i64 132
  %36 = load i32, ptr %35, align 4, !tbaa !33
  tail call void @avio_w8(ptr noundef %33, i32 noundef %36) #3
  %37 = load ptr, ptr %15, align 8, !tbaa !37
  tail call void @avio_w8(ptr noundef %37, i32 noundef 0) #3
  %38 = load ptr, ptr %15, align 8, !tbaa !37
  tail call void @ffio_fill(ptr noundef %38, i32 noundef 0, i64 noundef 1782) #3
  br label %39

39:                                               ; preds = %30, %13, %9
  %.0 = phi i32 [ -22, %9 ], [ -22, %13 ], [ 0, %30 ]
  ret i32 %.0
}